; Function Attrs: mustprogress nounwind uwtable
define dso_local void @_ZNK4llvm5APInt7ProfileERNS_16FoldingSetNodeIDE(ptr noundef nonnull readonly align 8 captures(none) dereferenceable(12) %0, ptr noundef nonnull align 8 dereferenceable(144) %1) local_unnamed_addr #0 align 2 {
  %3 = getelementptr inbounds nuw i8, ptr %0, i64 8
  %4 = load i32, ptr %3, align 8
  %5 = tail call noundef i64 @_ZNK4llvm15SmallVectorBaseIjE4sizeEv(ptr noundef nonnull align 8 dereferenceable(144) %1) #23
  %6 = add i64 %5, 1
  %7 = tail call noundef i64 @_ZNK4llvm15SmallVectorBaseIjE8capacityEv(ptr noundef nonnull align 8 dereferenceable(144) %1) #23
  %.not.i.i.i.i = icmp ugt i64 %6, %7
  br i1 %.not.i.i.i.i, label %8, label %_ZN4llvm16FoldingSetNodeID10AddIntegerEj.exit

8:                                                ; preds = %2
  %9 = getelementptr inbounds nuw i8, ptr %1, i64 16
  tail call void @_ZN4llvm15SmallVectorBaseIjE8grow_podEPvmm(ptr noundef nonnull align 8 dereferenceable(144) %1, ptr noundef nonnull %9, i64 noundef %6, i64 noundef 4) #23
  br label %_ZN4llvm16FoldingSetNodeID10AddIntegerEj.exit

_ZN4llvm16FoldingSetNodeID10AddIntegerEj.exit:    ; preds = %2, %8
  %10 = load ptr, ptr %1, align 8
  %11 = tail call noundef i64 @_ZNK4llvm15SmallVectorBaseIjE4sizeEv(ptr noundef nonnull align 8 dereferenceable(144) %1) #23
  %12 = getelementptr inbounds i32, ptr %10, i64 %11
  store i32 %4, ptr %12, align 1
  %13 = tail call noundef i64 @_ZNK4llvm15SmallVectorBaseIjE4sizeEv(ptr noundef nonnull align 8 dereferenceable(144) %1) #23
  %14 = add i64 %13, 1
  tail call void @_ZN4llvm15SmallVectorBaseIjE8set_sizeEm(ptr noundef nonnull align 8 dereferenceable(144) %1, i64 noundef %14) #23
  %15 = load i32, ptr %3, align 8
  %16 = icmp ult i32 %15, 65
  br i1 %16, label %17, label %.lr.ph.preheader

17:                                               ; preds = %_ZN4llvm16FoldingSetNodeID10AddIntegerEj.exit
  %18 = load i64, ptr %0, align 8
  tail call void @_ZN4llvm16FoldingSetNodeID10AddIntegerEy(ptr noundef nonnull align 8 dereferenceable(144) %1, i64 noundef %18)
  br label %.loopexit

.lr.ph.preheader:                                 ; preds = %_ZN4llvm16FoldingSetNodeID10AddIntegerEj.exit
  %19 = zext i32 %15 to i64
  %20 = add nuw nsw i64 %19, 63
  %21 = lshr i64 %20, 6
  br label %.lr.ph

.lr.ph:                                           ; preds = %.lr.ph.preheader, %.lr.ph
  %indvars.iv = phi i64 [ 0, %.lr.ph.preheader ], [ %indvars.iv.next, %.lr.ph ]
  %22 = load ptr, ptr %0, align 8
  %23 = getelementptr inbounds nuw i64, ptr %22, i64 %indvars.iv
  %24 = load i64, ptr %23, align 8
  tail call void @_ZN4llvm16FoldingSetNodeID10AddIntegerEy(ptr noundef nonnull align 8 dereferenceable(144) %1, i64 noundef %24)
  %indvars.iv.next = add nuw nsw i64 %indvars.iv, 1
  %exitcond.not = icmp eq i64 %indvars.iv.next, %21
  br i1 %exitcond.not, label %.loopexit, label %.lr.ph, !llvm.loop !8

.loopexit:                                        ; preds = %.lr.ph, %17
  ret void
}